target datalayout = "e-m:e-p270:32:32-p271:32:32-p272:64:64-i64:64-i128:128-f80:128-n8:16:32:64-S128"
target triple = "x86_64-pc-linux-gnu"

%struct.PlatformTarget = type { ptr, i32, ptr, ptr, i32, i32, i32, i32, i32, i32, i32, [7 x %struct.AlignData], [7 x %struct.AlignData], [7 x %struct.AlignData], i32, i16, %union.anon.85, i8, i8, i8, i8, i8, i8, i8, i8, i8, i8, %struct.AlignData, i32, i32, i32, i32, i32, i32, i32, i32, i32, i32, i32, i32, i32, i32, i32, i32, ptr }
%union.anon.85 = type { %struct.anon.87 }
%struct.anon.87 = type { %struct.X86Features, i32, i32 }
%struct.X86Features = type { [2 x i64], ptr }
%struct.AlignData = type { i32, i32 }
%struct.Type_ = type { i32, ptr, ptr, ptr, %union.anon.96, ptr, ptr, %union.anon.98 }
%union.anon.96 = type { ptr }
%union.anon.98 = type { %struct.TypeFunction }
%struct.TypeFunction = type { ptr, ptr, ptr }
%struct.TypeArray = type { ptr, i32 }

@platform_target = external global %struct.PlatformTarget, align 8
@type_ulong = external global ptr, align 8
@type_void = external global ptr, align 8

; Function Attrs: nounwind uwtable
define internal i32 @aligned_offset(i32 noundef %0, i32 noundef %1) #0 {
  %3 = alloca i32, align 4
  %4 = alloca i32, align 4
  store i32 %0, ptr %3, align 4
  store i32 %1, ptr %4, align 4
  %5 = load i32, ptr %3, align 4
  %6 = load i32, ptr %4, align 4
  %7 = add i32 %5, %6
  %8 = sub i32 %7, 1
  %9 = load i32, ptr %4, align 4
  %10 = udiv i32 %8, %9
  %11 = load i32, ptr %4, align 4
  %12 = mul i32 %10, %11
  ret i32 %12
}

; Function Attrs: nounwind uwtable
define internal zeroext i1 @is_power_of_two(i64 noundef %0) #0 {
  %2 = alloca i64, align 8
  store i64 %0, ptr %2, align 8
  %3 = load i64, ptr %2, align 8
  %4 = icmp ne i64 %3, 0
  br i1 %4, label %5, label %11

5:                                                ; preds = %1
  %6 = load i64, ptr %2, align 8
  %7 = load i64, ptr %2, align 8
  %8 = sub i64 %7, 1
  %9 = and i64 %6, %8
  %10 = icmp eq i64 %9, 0
  br label %11

11:                                               ; preds = %5, %1
  %12 = phi i1 [ false, %1 ], [ %10, %5 ]
  ret i1 %12
}

; Function Attrs: nounwind uwtable
define dso_local ptr @aarch64_classify_return_type(ptr noundef %0, i1 noundef zeroext %1) #0 {
  %3 = alloca ptr, align 8
  %4 = alloca i32, align 4
  %5 = alloca ptr, align 8
  %6 = alloca i1, align 1
  %7 = alloca ptr, align 8
  %8 = alloca i32, align 4
  %9 = alloca ptr, align 8
  %10 = alloca ptr, align 8
  %11 = alloca ptr, align 8
  %12 = alloca i8, align 1
  %13 = alloca i32, align 4
  %14 = alloca ptr, align 8
  %15 = alloca i32, align 4
  %16 = alloca i32, align 4
  store ptr %0, ptr %11, align 8
  %17 = zext i1 %1 to i8
  store i8 %17, ptr %12, align 1
  %18 = load ptr, ptr %11, align 8
  %19 = call ptr @type_lowering(ptr noundef %18)
  store ptr %19, ptr %11, align 8
  %20 = load ptr, ptr %11, align 8
  store ptr %20, ptr %9, align 8
  %21 = load ptr, ptr %9, align 8
  %22 = getelementptr inbounds %struct.Type_, ptr %21, i32 0, i32 1
  %23 = load ptr, ptr %22, align 8
  %24 = load ptr, ptr @type_void, align 8
  %25 = icmp eq ptr %23, %24
  br i1 %25, label %26, label %28

26:                                               ; preds = %2
  %27 = call ptr @abi_arg_ignore()
  store ptr %27, ptr %10, align 8
  br label %167

28:                                               ; preds = %2
  %29 = load ptr, ptr %11, align 8
  store ptr %29, ptr %7, align 8
  %30 = load ptr, ptr %7, align 8
  %31 = load i32, ptr %30, align 8
  %32 = icmp ne i32 %31, 37
  br i1 %32, label %33, label %34

33:                                               ; preds = %28
  store i1 false, ptr %6, align 1
  br label %51

34:                                               ; preds = %28
  %35 = load ptr, ptr %7, align 8
  %36 = getelementptr inbounds %struct.Type_, ptr %35, i32 0, i32 7
  %37 = getelementptr inbounds %struct.TypeArray, ptr %36, i32 0, i32 1
  %38 = load i32, ptr %37, align 8
  store i32 %38, ptr %8, align 4
  %39 = load i32, ptr %8, align 4
  %40 = zext i32 %39 to i64
  %41 = call zeroext i1 @is_power_of_two(i64 noundef %40)
  br i1 %41, label %43, label %42

42:                                               ; preds = %34
  store i1 true, ptr %6, align 1
  br label %51

43:                                               ; preds = %34
  %44 = load ptr, ptr %7, align 8
  %45 = call i32 @type_size(ptr noundef %44) #3
  switch i32 %45, label %50 [
    i32 8, label %46
    i32 16, label %47
  ]

46:                                               ; preds = %43
  store i1 false, ptr %6, align 1
  br label %51

47:                                               ; preds = %43
  %48 = load i32, ptr %8, align 4
  %49 = icmp eq i32 %48, 1
  store i1 %49, ptr %6, align 1
  br label %51

50:                                               ; preds = %43
  store i1 true, ptr %6, align 1
  br label %51

51:                                               ; preds = %50, %47, %46, %42, %33
  %52 = load i1, ptr %6, align 1
  br i1 %52, label %53, label %56

53:                                               ; preds = %51
  %54 = load ptr, ptr %11, align 8
  %55 = call ptr @aarch64_coerce_illegal_vector(ptr noundef %54)
  store ptr %55, ptr %10, align 8
  br label %167

56:                                               ; preds = %51
  %57 = load ptr, ptr %11, align 8
  %58 = call i32 @type_size(ptr noundef %57)
  store i32 %58, ptr %13, align 4
  %59 = load ptr, ptr %11, align 8
  %60 = getelementptr inbounds %struct.Type_, ptr %59, i32 0, i32 0
  %61 = load i32, ptr %60, align 8
  %62 = icmp eq i32 %61, 37
  br i1 %62, label %63, label %69

63:                                               ; preds = %56
  %64 = load i32, ptr %13, align 4
  %65 = icmp ugt i32 %64, 16
  br i1 %65, label %66, label %69

66:                                               ; preds = %63
  %67 = load ptr, ptr %11, align 8
  %68 = call ptr @abi_arg_new_direct_coerce_type(ptr noundef %67)
  store ptr %68, ptr %10, align 8
  br label %167

69:                                               ; preds = %63, %56
  %70 = load ptr, ptr %11, align 8
  %71 = call zeroext i1 @type_is_abi_aggregate(ptr noundef %70)
  br i1 %71, label %111, label %72

72:                                               ; preds = %69
  %73 = load ptr, ptr %11, align 8
  store ptr %73, ptr %5, align 8
  %74 = load ptr, ptr %5, align 8
  store ptr %74, ptr %3, align 8
  %75 = load ptr, ptr %3, align 8
  %76 = load i32, ptr %75, align 8
  store i32 %76, ptr %4, align 4
  %77 = load i32, ptr %4, align 4
  %78 = icmp eq i32 %77, 31
  br i1 %78, label %79, label %84

79:                                               ; preds = %72
  %80 = load ptr, ptr %3, align 8
  %81 = getelementptr inbounds %struct.Type_, ptr %80, i32 0, i32 1
  %82 = load ptr, ptr %81, align 8
  %83 = load i32, ptr %82, align 8
  store i32 %83, ptr %4, align 4
  br label %84

84:                                               ; preds = %79, %72
  %85 = load i32, ptr %4, align 4
  %86 = icmp uge i32 %85, 2
  br i1 %86, label %87, label %90

87:                                               ; preds = %84
  %88 = load i32, ptr %4, align 4
  %89 = icmp ule i32 %88, 12
  br label %90

90:                                               ; preds = %87, %84
  %91 = phi i1 [ false, %84 ], [ %89, %87 ]
  br i1 %91, label %92, label %99

92:                                               ; preds = %90
  %93 = load ptr, ptr %5, align 8
  %94 = getelementptr inbounds %struct.Type_, ptr %93, i32 0, i32 7
  %95 = load i32, ptr %94, align 8
  %96 = and i32 %95, 255
  %97 = load i32, ptr getelementptr inbounds (%struct.PlatformTarget, ptr @platform_target, i32 0, i32 33), align 8
  %98 = icmp ult i32 %96, %97
  br label %99

99:                                               ; preds = %92, %90
  %100 = phi i1 [ false, %90 ], [ %98, %92 ]
  br i1 %100, label %101, label %109

101:                                              ; preds = %99
  %102 = load i8, ptr getelementptr inbounds (%struct.PlatformTarget, ptr @platform_target, i32 0, i32 16), align 8
  %103 = lshr i8 %102, 1
  %104 = and i8 %103, 1
  %105 = trunc i8 %104 to i1
  br i1 %105, label %106, label %109

106:                                              ; preds = %101
  %107 = load ptr, ptr %11, align 8
  %108 = call ptr @abi_arg_new_direct_int_ext(ptr noundef %107)
  store ptr %108, ptr %10, align 8
  br label %167

109:                                              ; preds = %101, %99
  %110 = call ptr @abi_arg_new_direct()
  store ptr %110, ptr %10, align 8
  br label %167

111:                                              ; preds = %69
  %112 = load i32, ptr %13, align 4
  %113 = icmp ne i32 %112, 0
  br i1 %113, label %116, label %114

114:                                              ; preds = %111
  %115 = call ptr @abi_arg_ignore()
  store ptr %115, ptr %10, align 8
  br label %167

116:                                              ; preds = %111
  store ptr null, ptr %14, align 8
  store i32 0, ptr %15, align 4
  %117 = load ptr, ptr %11, align 8
  %118 = call zeroext i1 @type_is_homogenous_aggregate(ptr noundef %117, ptr noundef %14, ptr noundef %15)
  br i1 %118, label %119, label %127

119:                                              ; preds = %116
  %120 = load i32, ptr getelementptr inbounds (%struct.PlatformTarget, ptr @platform_target, i32 0, i32 4), align 8
  %121 = icmp eq i32 %120, 5
  br i1 %121, label %122, label %125

122:                                              ; preds = %119
  %123 = load i8, ptr %12, align 1
  %124 = trunc i8 %123 to i1
  br i1 %124, label %127, label %125

125:                                              ; preds = %122, %119
  %126 = call ptr @abi_arg_new_direct()
  store ptr %126, ptr %10, align 8
  br label %167

127:                                              ; preds = %122, %116
  %128 = load i32, ptr %13, align 4
  %129 = icmp ule i32 %128, 16
  br i1 %129, label %130, label %164

130:                                              ; preds = %127
  %131 = load i32, ptr %13, align 4
  %132 = icmp ule i32 %131, 8
  br i1 %132, label %133, label %142

133:                                              ; preds = %130
  %134 = load i8, ptr getelementptr inbounds (%struct.PlatformTarget, ptr @platform_target, i32 0, i32 17), align 8
  %135 = trunc i8 %134 to i1
  br i1 %135, label %142, label %136

136:                                              ; preds = %133
  %137 = load i32, ptr %13, align 4
  %138 = mul i32 %137, 8
  %139 = zext i32 %138 to i64
  %140 = call ptr @type_int_unsigned_by_bitsize(i64 noundef %139)
  %141 = call ptr @abi_arg_new_direct_coerce_type(ptr noundef %140)
  store ptr %141, ptr %10, align 8
  br label %167

142:                                              ; preds = %133, %130
  %143 = load ptr, ptr %11, align 8
  %144 = call i32 @type_abi_alignment(ptr noundef %143)
  store i32 %144, ptr %16, align 4
  %145 = load i32, ptr %13, align 4
  %146 = call i32 @aligned_offset(i32 noundef %145, i32 noundef 8)
  store i32 %146, ptr %13, align 4
  %147 = load i32, ptr %16, align 4
  %148 = icmp ult i32 %147, 16
  br i1 %148, label %149, label %158

149:                                              ; preds = %142
  %150 = load i32, ptr %13, align 4
  %151 = icmp eq i32 %150, 16
  br i1 %151, label %152, label %158

152:                                              ; preds = %149
  %153 = load ptr, ptr @type_ulong, align 8
  %154 = load i32, ptr %13, align 4
  %155 = udiv i32 %154, 8
  %156 = call ptr @type_get_array(ptr noundef %153, i32 noundef %155)
  %157 = call ptr @abi_arg_new_direct_coerce_type(ptr noundef %156)
  store ptr %157, ptr %10, align 8
  br label %167

158:                                              ; preds = %149, %142
  %159 = load i32, ptr %13, align 4
  %160 = mul i32 %159, 8
  %161 = zext i32 %160 to i64
  %162 = call ptr @type_int_unsigned_by_bitsize(i64 noundef %161)
  %163 = call ptr @abi_arg_new_direct_coerce_type(ptr noundef %162)
  store ptr %163, ptr %10, align 8
  br label %167

164:                                              ; preds = %127
  %165 = load ptr, ptr %11, align 8
  %166 = call ptr @abi_arg_new_indirect_by_val(ptr noundef %165)
  store ptr %166, ptr %10, align 8
  br label %167

167:                                              ; preds = %164, %158, %152, %136, %125, %114, %109, %106, %66, %53, %26
  %168 = load ptr, ptr %10, align 8
  ret ptr %168
}