; Function Attrs: nounwind uwtable
define dso_local ptr @aarch64_classify_return_type(ptr nocapture noundef readonly %0, i1 noundef zeroext %1) local_unnamed_addr #0 {
  %3 = alloca ptr, align 8
  %4 = alloca i32, align 4
  %5 = tail call fastcc ptr @type_lowering(ptr noundef %0)
  %6 = getelementptr inbounds i8, ptr %5, i64 8
  %7 = load ptr, ptr %6, align 8
  %8 = load ptr, ptr @type_void, align 8
  %9 = icmp eq ptr %7, %8
  br i1 %9, label %10, label %12

10:                                               ; preds = %2
  %11 = tail call ptr @abi_arg_ignore() #4
  br label %91

12:                                               ; preds = %2
  %13 = load i32, ptr %5, align 8
  %.not = icmp eq i32 %13, 37
  br i1 %.not, label %14, label %.critedge51

14:                                               ; preds = %12
  %15 = getelementptr inbounds i8, ptr %5, i64 64
  %16 = load i32, ptr %15, align 8
  %17 = tail call i32 @llvm.ctpop.i32(i32 %16), !range !7
  %or.cond55 = icmp eq i32 %17, 1
  br i1 %or.cond55, label %18, label %.critedge49

18:                                               ; preds = %14
  %19 = tail call i32 @type_size(ptr noundef nonnull %5) #4
  switch i32 %19, label %.critedge49 [
    i32 8, label %.critedge51
    i32 16, label %20
  ]

20:                                               ; preds = %18
  %21 = icmp eq i32 %16, 1
  br i1 %21, label %.critedge49, label %.critedge51

.critedge49:                                      ; preds = %14, %18, %20
  %22 = tail call ptr @aarch64_coerce_illegal_vector(ptr noundef nonnull %5)
  br label %91

.critedge51:                                      ; preds = %12, %18, %20
  %23 = tail call i32 @type_size(ptr noundef nonnull %5) #4
  %24 = load i32, ptr %5, align 8
  %25 = icmp eq i32 %24, 37
  %26 = icmp ugt i32 %23, 16
  %or.cond = select i1 %25, i1 %26, i1 false
  br i1 %or.cond, label %27, label %29

27:                                               ; preds = %.critedge51
  %28 = tail call ptr @abi_arg_new_direct_coerce_type(ptr noundef nonnull %5) #4
  br label %91

29:                                               ; preds = %.critedge51
  %30 = tail call zeroext i1 @type_is_abi_aggregate(ptr noundef nonnull %5) #4
  br i1 %30, label %52, label %31

31:                                               ; preds = %29
  %32 = load i32, ptr %5, align 8
  %33 = icmp eq i32 %32, 31
  br i1 %33, label %34, label %37

34:                                               ; preds = %31
  %35 = load ptr, ptr %6, align 8
  %36 = load i32, ptr %35, align 8
  br label %37

37:                                               ; preds = %34, %31
  %.0 = phi i32 [ %36, %34 ], [ %32, %31 ]
  %38 = add i32 %.0, -2
  %39 = icmp ult i32 %38, 11
  br i1 %39, label %40, label %.critedge

40:                                               ; preds = %37
  %41 = getelementptr inbounds i8, ptr %5, i64 56
  %42 = load i32, ptr %41, align 8
  %43 = and i32 %42, 255
  %44 = load i32, ptr getelementptr inbounds (%struct.PlatformTarget, ptr @platform_target, i64 0, i32 33), align 8
  %45 = icmp ult i32 %43, %44
  br i1 %45, label %46, label %.critedge

46:                                               ; preds = %40
  %47 = load i8, ptr getelementptr inbounds (%struct.PlatformTarget, ptr @platform_target, i64 0, i32 16), align 8
  %48 = and i8 %47, 2
  %.not46 = icmp eq i8 %48, 0
  br i1 %.not46, label %.critedge, label %49

49:                                               ; preds = %46
  %50 = tail call ptr @abi_arg_new_direct_int_ext(ptr noundef nonnull %5) #4
  br label %91

.critedge:                                        ; preds = %37, %46, %40
  %51 = tail call ptr @abi_arg_new_direct() #4
  br label %91

52:                                               ; preds = %29
  %.not47 = icmp eq i32 %23, 0
  br i1 %.not47, label %53, label %55

53:                                               ; preds = %52
  %54 = tail call ptr @abi_arg_ignore() #4
  br label %91

55:                                               ; preds = %52
  store ptr null, ptr %3, align 8
  store i32 0, ptr %4, align 4
  %56 = call zeroext i1 @type_is_homogenous_aggregate(ptr noundef nonnull %5, ptr noundef nonnull %3, ptr noundef nonnull %4) #4
  br i1 %56, label %57, label %62

57:                                               ; preds = %55
  %58 = load i32, ptr getelementptr inbounds (%struct.PlatformTarget, ptr @platform_target, i64 0, i32 4), align 8
  %59 = icmp eq i32 %58, 5
  %brmerge.not = and i1 %59, %1
  br i1 %brmerge.not, label %62, label %60

60:                                               ; preds = %57
  %61 = call ptr @abi_arg_new_direct() #4
  br label %91

62:                                               ; preds = %57, %55
  %63 = icmp ult i32 %23, 17
  br i1 %63, label %64, label %89

64:                                               ; preds = %62
  %65 = icmp ult i32 %23, 9
  br i1 %65, label %66, label %74

66:                                               ; preds = %64
  %67 = load i8, ptr getelementptr inbounds (%struct.PlatformTarget, ptr @platform_target, i64 0, i32 17), align 8
  %68 = trunc i8 %67 to i1
  br i1 %68, label %74, label %69

69:                                               ; preds = %66
  %70 = shl nuw nsw i32 %23, 3
  %71 = zext nneg i32 %70 to i64
  %72 = call ptr @type_int_unsigned_by_bitsize(i64 noundef %71) #4
  %73 = call ptr @abi_arg_new_direct_coerce_type(ptr noundef %72) #4
  br label %91

74:                                               ; preds = %66, %64
  %75 = call i32 @type_abi_alignment(ptr noundef nonnull %5) #4
  %76 = add nuw nsw i32 %23, 7
  %77 = and i32 %76, 56
  %78 = icmp ult i32 %75, 16
  %79 = icmp eq i32 %77, 16
  %or.cond3 = select i1 %78, i1 %79, i1 false
  br i1 %or.cond3, label %80, label %84

80:                                               ; preds = %74
  %81 = load ptr, ptr @type_ulong, align 8
  %82 = call ptr @type_get_array(ptr noundef %81, i32 noundef 2) #4
  %83 = call ptr @abi_arg_new_direct_coerce_type(ptr noundef %82) #4
  br label %91

84:                                               ; preds = %74
  %85 = shl nuw nsw i32 %77, 3
  %86 = zext nneg i32 %85 to i64
  %87 = call ptr @type_int_unsigned_by_bitsize(i64 noundef %86) #4
  %88 = call ptr @abi_arg_new_direct_coerce_type(ptr noundef %87) #4
  br label %91

89:                                               ; preds = %62
  %90 = call ptr @abi_arg_new_indirect_by_val(ptr noundef nonnull %5) #4
  br label %91

91:                                               ; preds = %89, %84, %80, %69, %60, %53, %.critedge, %49, %27, %.critedge49, %10
  %.042 = phi ptr [ %11, %10 ], [ %22, %.critedge49 ], [ %28, %27 ], [ %83, %80 ], [ %88, %84 ], [ %73, %69 ], [ %90, %89 ], [ %61, %60 ], [ %54, %53 ], [ %50, %49 ], [ %51, %.critedge ]
  ret ptr %.042
}